; Function Attrs: mustprogress nofree norecurse nosync nounwind willreturn memory(read, inaccessiblemem: none) uwtable
define ptr @Abc_NodeFanin1Copy(ptr noundef readonly captures(none) %0, ptr noundef readonly captures(none) %1, ptr noundef readonly captures(none) %2, i32 noundef %3) local_unnamed_addr #0 {
  %5 = getelementptr i8, ptr %2, i64 16
  %.val7 = load ptr, ptr %5, align 8, !tbaa !3
  %6 = shl nsw i32 %3, 1
  %7 = or disjoint i32 %6, 1
  %8 = sext i32 %7 to i64
  %9 = getelementptr inbounds i32, ptr %.val7, i64 %8
  %10 = load i32, ptr %9, align 4, !tbaa !10
  %11 = ashr i32 %10, 1
  %12 = getelementptr i8, ptr %1, i64 8
  %.val = load ptr, ptr %12, align 8, !tbaa !11
  %13 = sext i32 %11 to i64
  %14 = getelementptr inbounds i32, ptr %.val, i64 %13
  %15 = load i32, ptr %14, align 4, !tbaa !10
  %16 = xor i32 %15, %10
  %17 = getelementptr i8, ptr %0, i64 32
  %.val6 = load ptr, ptr %17, align 8, !tbaa !13
  %18 = getelementptr i8, ptr %.val6, i64 8
  %.val6.val = load ptr, ptr %18, align 8, !tbaa !28
  %19 = ashr i32 %15, 1
  %20 = sext i32 %19 to i64
  %21 = getelementptr inbounds ptr, ptr %.val6.val, i64 %20
  %22 = load ptr, ptr %21, align 8, !tbaa !30
  %23 = and i32 %16, 1
  %24 = ptrtoint ptr %22 to i64
  %25 = zext nneg i32 %23 to i64
  %26 = xor i64 %24, %25
  %27 = inttoptr i64 %26 to ptr
  ret ptr %27
}